; Function Attrs: nounwind uwtable
define void @Java_sun_java2d_x11_XSurfaceData_flushNativeSurface(ptr noundef %0, ptr noundef %1) local_unnamed_addr #0 {
  %3 = tail call ptr @SurfaceData_GetOps(ptr noundef %0, ptr noundef %1) #18
  %.not = icmp eq ptr %3, null
  br i1 %.not, label %5, label %4

4:                                                ; preds = %2
  tail call void @X11SD_Dispose(ptr noundef %0, ptr noundef nonnull %3)
  br label %5

5:                                                ; preds = %4, %2
  ret void
}